; Function Attrs: mustprogress nofree norecurse nosync nounwind willreturn memory(argmem: read) uwtable
define noundef double @_ZNK10open_spiel9laser_tag12LaserTagGame10MinUtilityEv(ptr nocapture noundef nonnull readonly align 8 dereferenceable(356) %0) unnamed_addr #10 align 2 {
  %2 = getelementptr inbounds nuw i8, ptr %0, i64 336
  %3 = load i32, ptr %2, align 8
  %4 = icmp slt i32 %3, 0
  %5 = sub nsw i32 0, %3
  %6 = sitofp i32 %5 to double
  %.0 = select i1 %4, double -1.000000e+00, double %6
  ret double %.0
}